target datalayout = "e-m:e-p270:32:32-p271:32:32-p272:64:64-i64:64-i128:128-f80:128-n8:16:32:64-S128"
target triple = "x86_64-pc-linux-gnu"

%struct.png_struct_def = type { [1 x %struct.__jmp_buf_tag], ptr, ptr, i64, ptr, ptr, ptr, ptr, ptr, ptr, ptr, ptr, ptr, i8, i8, i32, i32, i32, i32, %struct.z_stream_s, ptr, i32, i32, i32, i32, i32, i32, i32, i32, i32, i32, i32, i32, i32, i32, i32, i32, i32, i32, i32, i32, i32, i64, i32, i32, i32, ptr, ptr, ptr, ptr, i64, i32, i32, ptr, i16, i32, i16, i8, i8, i8, i8, i8, i8, i8, i8, i8, i8, i8, i8, i8, i8, i8, i16, i8, i32, %struct.png_color_16_struct, %struct.png_color_16_struct, ptr, i32, i32, %struct.png_xy, i32, i32, i32, i32, i32, ptr, ptr, ptr, ptr, ptr, ptr, %struct.png_color_8_struct, %struct.png_color_8_struct, ptr, %struct.png_color_16_struct, ptr, ptr, ptr, ptr, ptr, ptr, ptr, ptr, ptr, i32, i32, i64, i64, i64, i64, i32, i32, ptr, ptr, i32, [29 x i8], i32, ptr, ptr, i32, i32, ptr, i8, i8, i16, i16, ptr, i32, i8, ptr, ptr, ptr, ptr, ptr, ptr, ptr, i8, i32, i32, i32, i64, %struct.png_unknown_chunk_t, i64, ptr, i64, i32, i32, ptr, [4 x ptr] }
%struct.__jmp_buf_tag = type { [8 x i64], i32, %struct.__sigset_t }
%struct.__sigset_t = type { [16 x i64] }
%struct.z_stream_s = type { ptr, i32, i64, ptr, i32, i64, ptr, ptr, ptr, ptr, ptr, i32, i64, i64 }
%struct.png_xy = type { i32, i32, i32, i32, i32, i32, i32, i32 }
%struct.png_color_8_struct = type { i8, i8, i8, i8, i8 }
%struct.png_color_16_struct = type { i8, i16, i16, i16, i16 }
%struct.png_unknown_chunk_t = type { [5 x i8], ptr, i64, i8 }

; Function Attrs: nounwind uwtable
define internal ptr @png_read_buffer(ptr noalias noundef %0, i64 noundef %1) #0 {
  %3 = alloca ptr, align 8
  %4 = alloca ptr, align 8
  %5 = alloca i64, align 8
  %6 = alloca ptr, align 8
  %7 = alloca i32, align 4
  store ptr %0, ptr %4, align 8, !tbaa !3
  store i64 %1, ptr %5, align 8, !tbaa !29
  call void @llvm.lifetime.start.p0(i64 8, ptr %6) #7
  %8 = load ptr, ptr %4, align 8, !tbaa !3
  %9 = getelementptr inbounds nuw %struct.png_struct_def, ptr %8, i32 0, i32 144
  %10 = load ptr, ptr %9, align 8, !tbaa !91
  store ptr %10, ptr %6, align 8, !tbaa !8
  %11 = load i64, ptr %5, align 8, !tbaa !29
  %12 = load ptr, ptr %4, align 8, !tbaa !3
  %13 = getelementptr inbounds nuw %struct.png_struct_def, ptr %12, i32 0, i32 141
  %14 = load i64, ptr %13, align 8, !tbaa !44
  %15 = icmp ugt i64 %11, %14
  br i1 %15, label %16, label %17

16:                                               ; preds = %2
  store ptr null, ptr %3, align 8
  store i32 1, ptr %7, align 4
  br label %54

17:                                               ; preds = %2
  %18 = load ptr, ptr %6, align 8, !tbaa !8
  %19 = icmp ne ptr %18, null
  br i1 %19, label %20, label %33

20:                                               ; preds = %17
  %21 = load i64, ptr %5, align 8, !tbaa !29
  %22 = load ptr, ptr %4, align 8, !tbaa !3
  %23 = getelementptr inbounds nuw %struct.png_struct_def, ptr %22, i32 0, i32 145
  %24 = load i64, ptr %23, align 8, !tbaa !92
  %25 = icmp ugt i64 %21, %24
  br i1 %25, label %26, label %33

26:                                               ; preds = %20
  %27 = load ptr, ptr %4, align 8, !tbaa !3
  %28 = getelementptr inbounds nuw %struct.png_struct_def, ptr %27, i32 0, i32 144
  store ptr null, ptr %28, align 8, !tbaa !91
  %29 = load ptr, ptr %4, align 8, !tbaa !3
  %30 = getelementptr inbounds nuw %struct.png_struct_def, ptr %29, i32 0, i32 145
  store i64 0, ptr %30, align 8, !tbaa !92
  %31 = load ptr, ptr %4, align 8, !tbaa !3
  %32 = load ptr, ptr %6, align 8, !tbaa !8
  call void @png_free(ptr noundef %31, ptr noundef %32)
  store ptr null, ptr %6, align 8, !tbaa !8
  br label %33

33:                                               ; preds = %26, %20, %17
  %34 = load ptr, ptr %6, align 8, !tbaa !8
  %35 = icmp eq ptr %34, null
  br i1 %35, label %36, label %52

36:                                               ; preds = %33
  %37 = load ptr, ptr %4, align 8, !tbaa !3
  %38 = load i64, ptr %5, align 8, !tbaa !29
  %39 = call noalias ptr @png_malloc_base(ptr noundef %37, i64 noundef %38)
  store ptr %39, ptr %6, align 8, !tbaa !8
  %40 = load ptr, ptr %6, align 8, !tbaa !8
  %41 = icmp ne ptr %40, null
  br i1 %41, label %42, label %51

42:                                               ; preds = %36
  %43 = load ptr, ptr %6, align 8, !tbaa !8
  %44 = load i64, ptr %5, align 8, !tbaa !29
  call void @llvm.memset.p0.i64(ptr align 1 %43, i8 0, i64 %44, i1 false)
  %45 = load ptr, ptr %6, align 8, !tbaa !8
  %46 = load ptr, ptr %4, align 8, !tbaa !3
  %47 = getelementptr inbounds nuw %struct.png_struct_def, ptr %46, i32 0, i32 144
  store ptr %45, ptr %47, align 8, !tbaa !91
  %48 = load i64, ptr %5, align 8, !tbaa !29
  %49 = load ptr, ptr %4, align 8, !tbaa !3
  %50 = getelementptr inbounds nuw %struct.png_struct_def, ptr %49, i32 0, i32 145
  store i64 %48, ptr %50, align 8, !tbaa !92
  br label %51

51:                                               ; preds = %42, %36
  br label %52

52:                                               ; preds = %51, %33
  %53 = load ptr, ptr %6, align 8, !tbaa !8
  store ptr %53, ptr %3, align 8
  store i32 1, ptr %7, align 4
  br label %54

54:                                               ; preds = %52, %16
  call void @llvm.lifetime.end.p0(i64 8, ptr %6) #7
  %55 = load ptr, ptr %3, align 8
  ret ptr %55
}