; Function Attrs: nounwind uwtable
define internal fastcc ptr @png_read_buffer(ptr noalias noundef %0, i64 noundef range(i64 0, 4294967296) %1) unnamed_addr #0 {
  %3 = getelementptr inbounds nuw i8, ptr %0, i64 1176
  %4 = load ptr, ptr %3, align 8, !tbaa !104
  %5 = getelementptr inbounds nuw i8, ptr %0, i64 1128
  %6 = load i64, ptr %5, align 8, !tbaa !46
  %7 = icmp ugt i64 %1, %6
  br i1 %7, label %18, label %8

8:                                                ; preds = %2
  %.not = icmp eq ptr %4, null
  br i1 %.not, label %14, label %9

9:                                                ; preds = %8
  %10 = getelementptr inbounds nuw i8, ptr %0, i64 1184
  %11 = load i64, ptr %10, align 8, !tbaa !108
  %12 = icmp ugt i64 %1, %11
  br i1 %12, label %13, label %18

13:                                               ; preds = %9
  tail call void @llvm.memset.p0.i64(ptr noundef nonnull align 8 dereferenceable(16) %3, i8 0, i64 16, i1 false)
  tail call void @png_free(ptr noundef nonnull %0, ptr noundef nonnull %4) #12
  br label %14

14:                                               ; preds = %13, %8
  %15 = tail call noalias ptr @png_malloc_base(ptr noundef nonnull %0, i64 noundef %1) #12
  %.not27 = icmp eq ptr %15, null
  br i1 %.not27, label %18, label %16

16:                                               ; preds = %14
  tail call void @llvm.memset.p0.i64(ptr nonnull align 1 %15, i8 0, i64 %1, i1 false)
  store ptr %15, ptr %3, align 8, !tbaa !104
  %17 = getelementptr inbounds nuw i8, ptr %0, i64 1184
  store i64 %1, ptr %17, align 8, !tbaa !108
  br label %18

18:                                               ; preds = %9, %16, %14, %2
  %.021 = phi ptr [ null, %2 ], [ %15, %16 ], [ null, %14 ], [ %4, %9 ]
  ret ptr %.021
}